; Function Attrs: nounwind uwtable
define internal fastcc void @get_reference(ptr noundef %0, ptr noundef %1, ptr noundef %2, i32 noundef %3) unnamed_addr #2 {
  %5 = getelementptr inbounds nuw i8, ptr %0, i64 24
  %6 = load ptr, ptr %5, align 8, !tbaa !73
  %7 = getelementptr inbounds nuw i8, ptr %0, i64 288
  %8 = load i64, ptr %7, align 8
  %9 = and i64 %8, 65536
  %.not = icmp eq i64 %9, 0
  %10 = select i1 %.not, i32 3, i32 0
  %11 = tail call ptr @parse_object_with_flags(ptr noundef %6, ptr noundef %2, i32 noundef %10) #26
  %.not16 = icmp eq ptr %11, null
  br i1 %.not16, label %12, label %27

12:                                               ; preds = %4
  %13 = load i64, ptr %7, align 8
  %14 = and i64 %13, 1
  %.not17 = icmp eq i64 %14, 0
  br i1 %.not17, label %15, label %31

15:                                               ; preds = %12
  %16 = and i64 %13, 8796093022208
  %.not18 = icmp eq i64 %16, 0
  br i1 %.not18, label %20, label %17

17:                                               ; preds = %15
  %18 = load ptr, ptr %5, align 8, !tbaa !73
  %19 = tail call i32 @is_promisor_object(ptr noundef %18, ptr noundef %2) #26
  %.not19 = icmp eq i32 %19, 0
  br i1 %.not19, label %._crit_edge, label %31

._crit_edge:                                      ; preds = %17
  %.pre = load i64, ptr %7, align 8
  br label %20

20:                                               ; preds = %._crit_edge, %15
  %21 = phi i64 [ %.pre, %._crit_edge ], [ %13, %15 ]
  %22 = and i64 %21, 4398046511104
  %.not20 = icmp eq i64 %22, 0
  br i1 %.not20, label %26, label %23

23:                                               ; preds = %20
  %24 = getelementptr inbounds nuw i8, ptr %0, i64 2968
  %25 = tail call i32 @oidset_insert(ptr noundef nonnull %24, ptr noundef %2) #26
  br label %31

26:                                               ; preds = %20
  tail call void (ptr, ...) @die(ptr noundef nonnull @.str.38, ptr noundef %1) #28
  unreachable

27:                                               ; preds = %4
  %28 = load i32, ptr %11, align 4
  %29 = shl i32 %3, 4
  %30 = or i32 %28, %29
  store i32 %30, ptr %11, align 4
  br label %31

31:                                               ; preds = %17, %12, %27, %23
  ret void
}